; Function Attrs: nofree norecurse nosync nounwind memory(argmem: readwrite) uwtable
define internal void @blend_harmonic_8bit(ptr noundef readonly captures(none) %0, i64 noundef %1, ptr noundef readonly captures(none) %2, i64 noundef %3, ptr noundef writeonly captures(none) %4, i64 noundef %5, i64 noundef %6, i64 noundef %7, ptr noundef readonly captures(none) %8, ptr readnone captures(none) %9) #6 {
  %11 = getelementptr inbounds nuw i8, ptr %8, i64 8
  %12 = load double, ptr %11, align 8, !tbaa !70
  %13 = fptrunc nsz double %12 to float
  %14 = icmp sgt i64 %7, 0
  %15 = icmp sgt i64 %6, 0
  %or.cond = and i1 %14, %15
  br i1 %or.cond, label %.preheader.us, label %._crit_edge47

.preheader.us:                                    ; preds = %10, %._crit_edge.us
  %indvars.iv51 = phi i64 [ %indvars.iv.next52, %._crit_edge.us ], [ 0, %10 ]
  %.03845.us = phi ptr [ %36, %._crit_edge.us ], [ %4, %10 ]
  %.03944.us = phi ptr [ %38, %._crit_edge.us ], [ %2, %10 ]
  %.04043.us = phi ptr [ %37, %._crit_edge.us ], [ %0, %10 ]
  br label %16

16:                                               ; preds = %.preheader.us, %._crit_edge55
  %indvars.iv = phi i64 [ 0, %.preheader.us ], [ %indvars.iv.next, %._crit_edge55 ]
  %17 = getelementptr inbounds nuw i8, ptr %.04043.us, i64 %indvars.iv
  %18 = load i8, ptr %17, align 1, !tbaa !89
  %19 = uitofp i8 %18 to float
  %20 = icmp eq i8 %18, 0
  %21 = getelementptr inbounds nuw i8, ptr %.03944.us, i64 %indvars.iv
  %22 = load i8, ptr %21, align 1, !tbaa !89
  %23 = icmp eq i8 %22, 0
  %or.cond57 = select i1 %20, i1 %23, i1 false
  br i1 %or.cond57, label %._crit_edge55, label %._crit_edge

._crit_edge:                                      ; preds = %16
  %24 = zext i8 %18 to i64
  %25 = shl nuw nsw i64 %24, 1
  %26 = zext i8 %22 to i64
  %27 = mul nuw nsw i64 %25, %26
  %28 = add nuw nsw i64 %26, %24
  %.lhs.trunc.us = trunc nuw nsw i64 %27 to i32
  %.rhs.trunc.us = trunc nuw nsw i64 %28 to i32
  %29 = udiv i32 %.lhs.trunc.us, %.rhs.trunc.us
  %.zext.us = zext nneg i32 %29 to i64
  %30 = sub nsw i64 %.zext.us, %24
  %31 = sitofp i64 %30 to float
  br label %._crit_edge55

._crit_edge55:                                    ; preds = %16, %._crit_edge
  %32 = phi float [ %31, %._crit_edge ], [ 0.000000e+00, %16 ]
  %33 = tail call nsz float @llvm.fmuladd.f32(float %32, float %13, float %19)
  %34 = fptoui float %33 to i8
  %35 = getelementptr inbounds nuw i8, ptr %.03845.us, i64 %indvars.iv
  store i8 %34, ptr %35, align 1, !tbaa !89
  %indvars.iv.next = add nuw nsw i64 %indvars.iv, 1
  %exitcond.not = icmp eq i64 %indvars.iv.next, %6
  br i1 %exitcond.not, label %._crit_edge.us, label %16, !llvm.loop !162

._crit_edge.us:                                   ; preds = %._crit_edge55
  %36 = getelementptr inbounds i8, ptr %.03845.us, i64 %5
  %37 = getelementptr inbounds i8, ptr %.04043.us, i64 %1
  %38 = getelementptr inbounds i8, ptr %.03944.us, i64 %3
  %indvars.iv.next52 = add nuw nsw i64 %indvars.iv51, 1
  %exitcond54.not = icmp eq i64 %indvars.iv.next52, %7
  br i1 %exitcond54.not, label %._crit_edge47, label %.preheader.us, !llvm.loop !163

._crit_edge47:                                    ; preds = %._crit_edge.us, %10
  ret void
}